; Function Attrs: mustprogress uwtable
define void @_ZN3vcg9Trackball13DrawPostApplyEv(ptr noundef nonnull align 8 dereferenceable(597) %0) local_unnamed_addr #6 align 2 {
  %2 = getelementptr inbounds i8, ptr %0, i64 328
  %3 = load ptr, ptr %2, align 8
  %.not = icmp eq ptr %3, null
  br i1 %.not, label %4, label %.sink.split

4:                                                ; preds = %1
  %5 = getelementptr inbounds i8, ptr %0, i64 336
  %6 = load ptr, ptr %5, align 8
  %.not2 = icmp eq ptr %6, null
  br i1 %.not2, label %10, label %.sink.split

.sink.split:                                      ; preds = %4, %1
  %.sink6 = phi ptr [ %3, %1 ], [ %6, %4 ]
  %7 = load ptr, ptr %.sink6, align 8
  %8 = getelementptr inbounds i8, ptr %7, i64 56
  %9 = load ptr, ptr %8, align 8
  tail call void %9(ptr noundef nonnull align 8 dereferenceable(8) %.sink6, ptr noundef nonnull %0)
  br label %10

10:                                               ; preds = %.sink.split, %4
  ret void
}